target datalayout = "e-m:e-p270:32:32-p271:32:32-p272:64:64-i64:64-i128:128-f80:128-n8:16:32:64-S128"
target triple = "x86_64-pc-linux-gnu"

%"struct.faiss::VectorTransform" = type <{ ptr, i32, i32, i8, [7 x i8] }>
%"struct.faiss::LinearTransform" = type <{ %"struct.faiss::VectorTransform.base", i8, i8, [5 x i8], %"class.std::vector", %"class.std::vector", i8, [7 x i8] }>
%"struct.faiss::VectorTransform.base" = type <{ ptr, i32, i32, i8 }>
%"class.std::vector" = type { %"struct.std::_Vector_base" }
%"struct.std::_Vector_base" = type { %"struct.std::_Vector_base<float, std::allocator<float>>::_Vector_impl" }
%"struct.std::_Vector_base<float, std::allocator<float>>::_Vector_impl" = type { %"struct.std::_Vector_base<float, std::allocator<float>>::_Vector_impl_data" }
%"struct.std::_Vector_base<float, std::allocator<float>>::_Vector_impl_data" = type { ptr, ptr, ptr }
%"struct.faiss::PCAMatrix" = type { %"struct.faiss::LinearTransform.base", float, float, i8, i64, i32, %"class.std::vector", %"class.std::vector", %"class.std::vector" }
%"struct.faiss::LinearTransform.base" = type <{ %"struct.faiss::VectorTransform.base", i8, i8, [5 x i8], %"class.std::vector", %"class.std::vector", i8 }>

; Function Attrs: mustprogress nounwind uwtable
define linkonce_odr void @_ZNSt15__new_allocatorIfEC2Ev(ptr noundef nonnull align 1 dereferenceable(1) %0) unnamed_addr #0 comdat align 2 {
  %2 = alloca ptr, align 8
  store ptr %0, ptr %2, align 8, !tbaa !175
  ret void
}

; Function Attrs: mustprogress nounwind uwtable
define linkonce_odr void @_ZNSt12_Vector_baseIfSaIfEE17_Vector_impl_dataC2Ev(ptr noundef nonnull align 8 dereferenceable(24) %0) unnamed_addr #0 comdat align 2 {
  %2 = alloca ptr, align 8
  store ptr %0, ptr %2, align 8, !tbaa !270
  %3 = load ptr, ptr %2, align 8
  %4 = getelementptr inbounds nuw %"struct.std::_Vector_base<float, std::allocator<float>>::_Vector_impl_data", ptr %3, i32 0, i32 0
  store ptr null, ptr %4, align 8, !tbaa !178
  %5 = getelementptr inbounds nuw %"struct.std::_Vector_base<float, std::allocator<float>>::_Vector_impl_data", ptr %3, i32 0, i32 1
  store ptr null, ptr %5, align 8, !tbaa !177
  %6 = getelementptr inbounds nuw %"struct.std::_Vector_base<float, std::allocator<float>>::_Vector_impl_data", ptr %3, i32 0, i32 2
  store ptr null, ptr %6, align 8, !tbaa !187
  ret void
}

; Function Attrs: mustprogress nounwind uwtable
define linkonce_odr void @_ZNSaIfEC2Ev(ptr noundef nonnull align 1 dereferenceable(1) %0) unnamed_addr #0 comdat align 2 {
  %2 = alloca ptr, align 8
  store ptr %0, ptr %2, align 8, !tbaa !185
  %3 = load ptr, ptr %2, align 8
  call void @_ZNSt15__new_allocatorIfEC2Ev(ptr noundef nonnull align 1 dereferenceable(1) %3) #19
  ret void
}

; Function Attrs: mustprogress nounwind uwtable
define linkonce_odr void @_ZNSt12_Vector_baseIfSaIfEE12_Vector_implC2Ev(ptr noundef nonnull align 8 dereferenceable(24) %0) unnamed_addr #0 comdat align 2 {
  %2 = alloca ptr, align 8
  store ptr %0, ptr %2, align 8, !tbaa !173
  %3 = load ptr, ptr %2, align 8
  call void @_ZNSaIfEC2Ev(ptr noundef nonnull align 1 dereferenceable(1) %3) #19
  call void @_ZNSt12_Vector_baseIfSaIfEE17_Vector_impl_dataC2Ev(ptr noundef nonnull align 8 dereferenceable(24) %3) #19
  ret void
}

; Function Attrs: mustprogress nounwind uwtable
define linkonce_odr void @_ZNSt12_Vector_baseIfSaIfEEC2Ev(ptr noundef nonnull align 8 dereferenceable(24) %0) unnamed_addr #0 comdat align 2 {
  %2 = alloca ptr, align 8
  store ptr %0, ptr %2, align 8, !tbaa !171
  %3 = load ptr, ptr %2, align 8
  %4 = getelementptr inbounds nuw %"struct.std::_Vector_base", ptr %3, i32 0, i32 0
  call void @_ZNSt12_Vector_baseIfSaIfEE12_Vector_implC2Ev(ptr noundef nonnull align 8 dereferenceable(24) %4) #19
  ret void
}

; Function Attrs: mustprogress nounwind uwtable
define linkonce_odr void @_ZN5faiss15VectorTransformC2Eii(ptr noundef nonnull align 8 dereferenceable(17) %0, i32 noundef %1, i32 noundef %2) unnamed_addr #0 comdat align 2 {
  %4 = alloca ptr, align 8
  %5 = alloca i32, align 4
  %6 = alloca i32, align 4
  store ptr %0, ptr %4, align 8, !tbaa !4
  store i32 %1, ptr %5, align 4, !tbaa !21
  store i32 %2, ptr %6, align 4, !tbaa !21
  %7 = load ptr, ptr %4, align 8
  store ptr getelementptr inbounds inrange(-16, 48) ({ [8 x ptr] }, ptr @_ZTVN5faiss15VectorTransformE, i32 0, i32 0, i32 2), ptr %7, align 8, !tbaa !44
  %8 = getelementptr inbounds nuw %"struct.faiss::VectorTransform", ptr %7, i32 0, i32 1
  %9 = load i32, ptr %5, align 4, !tbaa !21
  store i32 %9, ptr %8, align 8, !tbaa !34
  %10 = getelementptr inbounds nuw %"struct.faiss::VectorTransform", ptr %7, i32 0, i32 2
  %11 = load i32, ptr %6, align 4, !tbaa !21
  store i32 %11, ptr %10, align 4, !tbaa !28
  %12 = getelementptr inbounds nuw %"struct.faiss::VectorTransform", ptr %7, i32 0, i32 3
  store i8 1, ptr %12, align 8, !tbaa !15
  ret void
}

; Function Attrs: mustprogress nounwind uwtable
define linkonce_odr void @_ZNSt6vectorIfSaIfEEC2Ev(ptr noundef nonnull align 8 dereferenceable(24) %0) unnamed_addr #0 comdat align 2 {
  %2 = alloca ptr, align 8
  store ptr %0, ptr %2, align 8, !tbaa !169
  %3 = load ptr, ptr %2, align 8
  call void @_ZNSt12_Vector_baseIfSaIfEEC2Ev(ptr noundef nonnull align 8 dereferenceable(24) %3) #19
  ret void
}

; Function Attrs: mustprogress uwtable
define void @_ZN5faiss15LinearTransformC2Eiib(ptr noundef nonnull align 8 dereferenceable(73) %0, i32 noundef %1, i32 noundef %2, i1 noundef zeroext %3) unnamed_addr #1 align 2 {
  %5 = alloca ptr, align 8
  %6 = alloca i32, align 4
  %7 = alloca i32, align 4
  %8 = alloca i8, align 1
  store ptr %0, ptr %5, align 8, !tbaa !13
  store i32 %1, ptr %6, align 4, !tbaa !21
  store i32 %2, ptr %7, align 4, !tbaa !21
  %9 = zext i1 %3 to i8
  store i8 %9, ptr %8, align 1, !tbaa !168
  %10 = load ptr, ptr %5, align 8
  %11 = load i32, ptr %6, align 4, !tbaa !21
  %12 = load i32, ptr %7, align 4, !tbaa !21
  call void @_ZN5faiss15VectorTransformC2Eii(ptr noundef nonnull align 8 dereferenceable(17) %10, i32 noundef %11, i32 noundef %12)
  store ptr getelementptr inbounds inrange(-16, 48) ({ [8 x ptr] }, ptr @_ZTVN5faiss15LinearTransformE, i32 0, i32 0, i32 2), ptr %10, align 8, !tbaa !44
  %13 = getelementptr inbounds nuw %"struct.faiss::LinearTransform", ptr %10, i32 0, i32 1
  %14 = load i8, ptr %8, align 1, !tbaa !168, !range !19, !noundef !20
  %15 = trunc i8 %14 to i1
  %16 = zext i1 %15 to i8
  store i8 %16, ptr %13, align 1, !tbaa !22
  %17 = getelementptr inbounds nuw %"struct.faiss::LinearTransform", ptr %10, i32 0, i32 2
  store i8 0, ptr %17, align 2, !tbaa !35
  %18 = getelementptr inbounds nuw %"struct.faiss::LinearTransform", ptr %10, i32 0, i32 4
  call void @_ZNSt6vectorIfSaIfEEC2Ev(ptr noundef nonnull align 8 dereferenceable(24) %18) #19
  %19 = getelementptr inbounds nuw %"struct.faiss::LinearTransform", ptr %10, i32 0, i32 5
  call void @_ZNSt6vectorIfSaIfEEC2Ev(ptr noundef nonnull align 8 dereferenceable(24) %19) #19
  %20 = getelementptr inbounds nuw %"struct.faiss::LinearTransform", ptr %10, i32 0, i32 6
  store i8 0, ptr %20, align 8, !tbaa !50
  %21 = getelementptr inbounds nuw %"struct.faiss::VectorTransform", ptr %10, i32 0, i32 3
  store i8 0, ptr %21, align 8, !tbaa !15
  ret void
}

; Function Attrs: mustprogress uwtable
define void @_ZN5faiss9PCAMatrixC2Eiifb(ptr noundef nonnull align 8 dereferenceable(176) %0, i32 noundef %1, i32 noundef %2, float noundef %3, i1 noundef zeroext %4) unnamed_addr #1 align 2 {
  %6 = alloca ptr, align 8
  %7 = alloca i32, align 4
  %8 = alloca i32, align 4
  %9 = alloca float, align 4
  %10 = alloca i8, align 1
  store ptr %0, ptr %6, align 8, !tbaa !46
  store i32 %1, ptr %7, align 4, !tbaa !21
  store i32 %2, ptr %8, align 4, !tbaa !21
  store float %3, ptr %9, align 4, !tbaa !29
  %11 = zext i1 %4 to i8
  store i8 %11, ptr %10, align 1, !tbaa !168
  %12 = load ptr, ptr %6, align 8
  %13 = load i32, ptr %7, align 4, !tbaa !21
  %14 = load i32, ptr %8, align 4, !tbaa !21
  call void @_ZN5faiss15LinearTransformC2Eiib(ptr noundef nonnull align 8 dereferenceable(73) %12, i32 noundef %13, i32 noundef %14, i1 noundef zeroext true)
  store ptr getelementptr inbounds inrange(-16, 48) ({ [8 x ptr] }, ptr @_ZTVN5faiss9PCAMatrixE, i32 0, i32 0, i32 2), ptr %12, align 8, !tbaa !44
  %15 = getelementptr inbounds nuw %"struct.faiss::PCAMatrix", ptr %12, i32 0, i32 1
  %16 = load float, ptr %9, align 4, !tbaa !29
  store float %16, ptr %15, align 4, !tbaa !208
  %17 = getelementptr inbounds nuw %"struct.faiss::PCAMatrix", ptr %12, i32 0, i32 3
  %18 = load i8, ptr %10, align 1, !tbaa !168, !range !19, !noundef !20
  %19 = trunc i8 %18 to i1
  %20 = zext i1 %19 to i8
  store i8 %20, ptr %17, align 4, !tbaa !209
  %21 = getelementptr inbounds nuw %"struct.faiss::PCAMatrix", ptr %12, i32 0, i32 6
  call void @_ZNSt6vectorIfSaIfEEC2Ev(ptr noundef nonnull align 8 dereferenceable(24) %21) #19
  %22 = getelementptr inbounds nuw %"struct.faiss::PCAMatrix", ptr %12, i32 0, i32 7
  call void @_ZNSt6vectorIfSaIfEEC2Ev(ptr noundef nonnull align 8 dereferenceable(24) %22) #19
  %23 = getelementptr inbounds nuw %"struct.faiss::PCAMatrix", ptr %12, i32 0, i32 8
  call void @_ZNSt6vectorIfSaIfEEC2Ev(ptr noundef nonnull align 8 dereferenceable(24) %23) #19
  %24 = getelementptr inbounds nuw %"struct.faiss::VectorTransform", ptr %12, i32 0, i32 3
  store i8 0, ptr %24, align 8, !tbaa !15
  %25 = getelementptr inbounds nuw %"struct.faiss::PCAMatrix", ptr %12, i32 0, i32 4
  store i64 1000, ptr %25, align 8, !tbaa !48
  %26 = getelementptr inbounds nuw %"struct.faiss::PCAMatrix", ptr %12, i32 0, i32 5
  store i32 0, ptr %26, align 8, !tbaa !210
  %27 = getelementptr inbounds nuw %"struct.faiss::PCAMatrix", ptr %12, i32 0, i32 2
  store float 0.000000e+00, ptr %27, align 8, !tbaa !211
  ret void
}