; Function Attrs: mustprogress nofree norecurse nosync nounwind willreturn memory(argmem: write) uwtable
define void @_ZN5faiss9PCAMatrixC2Eiifb(ptr noundef nonnull writeonly align 8 captures(none) dereferenceable(176) initializes((0, 19), (24, 73), (76, 85), (88, 100), (104, 176)) %0, i32 noundef %1, i32 noundef %2, float noundef %3, i1 noundef zeroext %4) unnamed_addr #17 align 2 {
  %6 = zext i1 %4 to i8
  %7 = getelementptr inbounds nuw i8, ptr %0, i64 8
  store i32 %1, ptr %7, align 8, !tbaa !37
  %8 = getelementptr inbounds nuw i8, ptr %0, i64 12
  store i32 %2, ptr %8, align 4, !tbaa !29
  %9 = getelementptr inbounds nuw i8, ptr %0, i64 16
  %10 = getelementptr inbounds nuw i8, ptr %0, i64 17
  store i8 1, ptr %10, align 1, !tbaa !22
  %11 = getelementptr inbounds nuw i8, ptr %0, i64 18
  store i8 0, ptr %11, align 2, !tbaa !39
  %12 = getelementptr inbounds nuw i8, ptr %0, i64 24
  tail call void @llvm.memset.p0.i64(ptr noundef nonnull align 8 dereferenceable(49) %12, i8 0, i64 49, i1 false)
  store ptr getelementptr inbounds nuw inrange(-16, 48) (i8, ptr @_ZTVN5faiss9PCAMatrixE, i64 16), ptr %0, align 8, !tbaa !41
  %13 = getelementptr inbounds nuw i8, ptr %0, i64 76
  store float %3, ptr %13, align 4, !tbaa !149
  %14 = getelementptr inbounds nuw i8, ptr %0, i64 84
  store i8 %6, ptr %14, align 4, !tbaa !150
  %15 = getelementptr inbounds nuw i8, ptr %0, i64 104
  store i8 0, ptr %9, align 8, !tbaa !16
  %16 = getelementptr inbounds nuw i8, ptr %0, i64 88
  tail call void @llvm.memset.p0.i64(ptr noundef nonnull align 8 dereferenceable(72) %15, i8 0, i64 72, i1 false)
  store i64 1000, ptr %16, align 8, !tbaa !53
  %17 = getelementptr inbounds nuw i8, ptr %0, i64 96
  store i32 0, ptr %17, align 8, !tbaa !151
  %18 = getelementptr inbounds nuw i8, ptr %0, i64 80
  store float 0.000000e+00, ptr %18, align 8, !tbaa !152
  ret void
}